target datalayout = "e-m:e-p270:32:32-p271:32:32-p272:64:64-i64:64-i128:128-f80:128-n8:16:32:64-S128"
target triple = "x86_64-pc-linux-gnu"

@stderr = external global ptr, align 8
@.str.152 = private unnamed_addr constant [17 x i8] c"adding %s to %s\0A\00", align 1
@.str.153 = private unnamed_addr constant [21 x i8] c"clearing %s from %s\0A\00", align 1
@.str.154 = private unnamed_addr constant [20 x i8] c"and'ing %s from %s\0A\00", align 1
@.str.155 = private unnamed_addr constant [20 x i8] c"xor'ing %s from %s\0A\00", align 1

; Function Attrs: inlinehint nounwind uwtable
define internal i32 @hwloc_calc_append_set(ptr noundef %0, ptr noundef %1, i32 noundef %2, i32 noundef %3) #2 {
  %5 = alloca ptr, align 8
  %6 = alloca ptr, align 8
  %7 = alloca i32, align 4
  %8 = alloca i32, align 4
  %9 = alloca ptr, align 8
  %10 = alloca ptr, align 8
  store ptr %0, ptr %5, align 8, !tbaa !17
  store ptr %1, ptr %6, align 8, !tbaa !17
  store i32 %2, ptr %7, align 4, !tbaa !11
  store i32 %3, ptr %8, align 4, !tbaa !11
  call void @llvm.lifetime.start.p0(i64 8, ptr %9) #11
  call void @llvm.lifetime.start.p0(i64 8, ptr %10) #11
  %11 = load ptr, ptr %6, align 8, !tbaa !17
  %12 = call i32 @hwloc_bitmap_asprintf(ptr noundef %9, ptr noundef %11)
  %13 = load ptr, ptr %5, align 8, !tbaa !17
  %14 = call i32 @hwloc_bitmap_asprintf(ptr noundef %10, ptr noundef %13)
  %15 = load i32, ptr %7, align 4, !tbaa !11
  switch i32 %15, label %68 [
    i32 0, label %16
    i32 1, label %29
    i32 2, label %42
    i32 3, label %55
  ]

16:                                               ; preds = %4
  %17 = load i32, ptr %8, align 4, !tbaa !11
  %18 = icmp sgt i32 %17, 0
  br i1 %18, label %19, label %24

19:                                               ; preds = %16
  %20 = load ptr, ptr @stderr, align 8, !tbaa !9
  %21 = load ptr, ptr %9, align 8, !tbaa !4
  %22 = load ptr, ptr %10, align 8, !tbaa !4
  %23 = call i32 (ptr, ptr, ...) @fprintf(ptr noundef %20, ptr noundef @.str.152, ptr noundef %21, ptr noundef %22) #11
  br label %24

24:                                               ; preds = %19, %16
  %25 = load ptr, ptr %5, align 8, !tbaa !17
  %26 = load ptr, ptr %5, align 8, !tbaa !17
  %27 = load ptr, ptr %6, align 8, !tbaa !17
  %28 = call i32 @hwloc_bitmap_or(ptr noundef %25, ptr noundef %26, ptr noundef %27)
  br label %69

29:                                               ; preds = %4
  %30 = load i32, ptr %8, align 4, !tbaa !11
  %31 = icmp sgt i32 %30, 0
  br i1 %31, label %32, label %37

32:                                               ; preds = %29
  %33 = load ptr, ptr @stderr, align 8, !tbaa !9
  %34 = load ptr, ptr %9, align 8, !tbaa !4
  %35 = load ptr, ptr %10, align 8, !tbaa !4
  %36 = call i32 (ptr, ptr, ...) @fprintf(ptr noundef %33, ptr noundef @.str.153, ptr noundef %34, ptr noundef %35) #11
  br label %37

37:                                               ; preds = %32, %29
  %38 = load ptr, ptr %5, align 8, !tbaa !17
  %39 = load ptr, ptr %5, align 8, !tbaa !17
  %40 = load ptr, ptr %6, align 8, !tbaa !17
  %41 = call i32 @hwloc_bitmap_andnot(ptr noundef %38, ptr noundef %39, ptr noundef %40)
  br label %69

42:                                               ; preds = %4
  %43 = load i32, ptr %8, align 4, !tbaa !11
  %44 = icmp sgt i32 %43, 0
  br i1 %44, label %45, label %50

45:                                               ; preds = %42
  %46 = load ptr, ptr @stderr, align 8, !tbaa !9
  %47 = load ptr, ptr %9, align 8, !tbaa !4
  %48 = load ptr, ptr %10, align 8, !tbaa !4
  %49 = call i32 (ptr, ptr, ...) @fprintf(ptr noundef %46, ptr noundef @.str.154, ptr noundef %47, ptr noundef %48) #11
  br label %50

50:                                               ; preds = %45, %42
  %51 = load ptr, ptr %5, align 8, !tbaa !17
  %52 = load ptr, ptr %5, align 8, !tbaa !17
  %53 = load ptr, ptr %6, align 8, !tbaa !17
  %54 = call i32 @hwloc_bitmap_and(ptr noundef %51, ptr noundef %52, ptr noundef %53)
  br label %69

55:                                               ; preds = %4
  %56 = load i32, ptr %8, align 4, !tbaa !11
  %57 = icmp sgt i32 %56, 0
  br i1 %57, label %58, label %63

58:                                               ; preds = %55
  %59 = load ptr, ptr @stderr, align 8, !tbaa !9
  %60 = load ptr, ptr %9, align 8, !tbaa !4
  %61 = load ptr, ptr %10, align 8, !tbaa !4
  %62 = call i32 (ptr, ptr, ...) @fprintf(ptr noundef %59, ptr noundef @.str.155, ptr noundef %60, ptr noundef %61) #11
  br label %63

63:                                               ; preds = %58, %55
  %64 = load ptr, ptr %5, align 8, !tbaa !17
  %65 = load ptr, ptr %5, align 8, !tbaa !17
  %66 = load ptr, ptr %6, align 8, !tbaa !17
  %67 = call i32 @hwloc_bitmap_xor(ptr noundef %64, ptr noundef %65, ptr noundef %66)
  br label %69

68:                                               ; preds = %4
  br label %69

69:                                               ; preds = %68, %63, %50, %37, %24
  %70 = load ptr, ptr %9, align 8, !tbaa !4
  call void @free(ptr noundef %70) #11
  %71 = load ptr, ptr %10, align 8, !tbaa !4
  call void @free(ptr noundef %71) #11
  call void @llvm.lifetime.end.p0(i64 8, ptr %10) #11
  call void @llvm.lifetime.end.p0(i64 8, ptr %9) #11
  ret i32 0
}