; Function Attrs: inlinehint nounwind uwtable
define internal fastcc void @hwloc_calc_append_set(ptr noundef %0, ptr noundef %1, i32 noundef range(i32 0, 4) %2, i32 noundef %3) unnamed_addr #14 {
  %5 = alloca ptr, align 8
  %6 = alloca ptr, align 8
  call void @llvm.lifetime.start.p0(i64 8, ptr nonnull %5) #25
  call void @llvm.lifetime.start.p0(i64 8, ptr nonnull %6) #25
  %7 = call i32 @hwloc_bitmap_asprintf(ptr noundef nonnull %5, ptr noundef %1) #25
  %8 = call i32 @hwloc_bitmap_asprintf(ptr noundef nonnull %6, ptr noundef %0) #25
  %9 = icmp sgt i32 %3, 0
  switch i32 %2, label %default.unreachable18 [
    i32 0, label %10
    i32 1, label %18
    i32 2, label %26
    i32 3, label %34
  ]

10:                                               ; preds = %4
  br i1 %9, label %11, label %16

11:                                               ; preds = %10
  %12 = load ptr, ptr @stderr, align 8, !tbaa !9
  %13 = load ptr, ptr %5, align 8, !tbaa !4
  %14 = load ptr, ptr %6, align 8, !tbaa !4
  %15 = call i32 (ptr, ptr, ...) @fprintf(ptr noundef %12, ptr noundef nonnull @.str.152, ptr noundef %13, ptr noundef %14) #27
  br label %16

16:                                               ; preds = %11, %10
  %17 = call i32 @hwloc_bitmap_or(ptr noundef %0, ptr noundef %0, ptr noundef %1) #25
  br label %42

18:                                               ; preds = %4
  br i1 %9, label %19, label %24

19:                                               ; preds = %18
  %20 = load ptr, ptr @stderr, align 8, !tbaa !9
  %21 = load ptr, ptr %5, align 8, !tbaa !4
  %22 = load ptr, ptr %6, align 8, !tbaa !4
  %23 = call i32 (ptr, ptr, ...) @fprintf(ptr noundef %20, ptr noundef nonnull @.str.153, ptr noundef %21, ptr noundef %22) #27
  br label %24

24:                                               ; preds = %19, %18
  %25 = call i32 @hwloc_bitmap_andnot(ptr noundef %0, ptr noundef %0, ptr noundef %1) #25
  br label %42

26:                                               ; preds = %4
  br i1 %9, label %27, label %32

27:                                               ; preds = %26
  %28 = load ptr, ptr @stderr, align 8, !tbaa !9
  %29 = load ptr, ptr %5, align 8, !tbaa !4
  %30 = load ptr, ptr %6, align 8, !tbaa !4
  %31 = call i32 (ptr, ptr, ...) @fprintf(ptr noundef %28, ptr noundef nonnull @.str.154, ptr noundef %29, ptr noundef %30) #27
  br label %32

32:                                               ; preds = %27, %26
  %33 = call i32 @hwloc_bitmap_and(ptr noundef %0, ptr noundef %0, ptr noundef %1) #25
  br label %42

34:                                               ; preds = %4
  br i1 %9, label %35, label %40

35:                                               ; preds = %34
  %36 = load ptr, ptr @stderr, align 8, !tbaa !9
  %37 = load ptr, ptr %5, align 8, !tbaa !4
  %38 = load ptr, ptr %6, align 8, !tbaa !4
  %39 = call i32 (ptr, ptr, ...) @fprintf(ptr noundef %36, ptr noundef nonnull @.str.155, ptr noundef %37, ptr noundef %38) #27
  br label %40

40:                                               ; preds = %35, %34
  %41 = call i32 @hwloc_bitmap_xor(ptr noundef %0, ptr noundef %0, ptr noundef %1) #25
  br label %42

default.unreachable18:                            ; preds = %4
  unreachable

42:                                               ; preds = %40, %32, %24, %16
  %43 = load ptr, ptr %5, align 8, !tbaa !4
  call void @free(ptr noundef %43) #25
  %44 = load ptr, ptr %6, align 8, !tbaa !4
  call void @free(ptr noundef %44) #25
  call void @llvm.lifetime.end.p0(i64 8, ptr nonnull %6) #25
  call void @llvm.lifetime.end.p0(i64 8, ptr nonnull %5) #25
  ret void
}